; Function Attrs: nounwind sspstrong uwtable
define internal i64 @ossl_bn_sub(i64 noundef %0, i64 noundef %1) #0 {
  %3 = alloca i64, align 8
  store i64 %1, ptr %3, align 8, !tbaa !6
  %4 = call ptr @ossl_bn_value_ptr(ptr noundef nonnull %3)
  %5 = call ptr @rb_check_typeddata(i64 noundef %0, ptr noundef nonnull @ossl_bn_type) #11
  %.not = icmp eq ptr %5, null
  br i1 %.not, label %6, label %8

6:                                                ; preds = %2
  %7 = load i64, ptr @rb_eRuntimeError, align 8, !tbaa !6
  call void (i64, ptr, ...) @ossl_raise(i64 noundef %7, ptr noundef nonnull @.str) #12
  unreachable

8:                                                ; preds = %2
  %9 = call i64 @rb_obj_class(i64 noundef %0) #11
  %10 = call i64 @rb_data_typed_object_wrap(i64 noundef %9, ptr noundef null, ptr noundef nonnull @ossl_bn_type) #11
  %11 = call ptr @BN_new() #11
  %.not11 = icmp eq ptr %11, null
  br i1 %.not11, label %12, label %14

12:                                               ; preds = %8
  %13 = load i64, ptr @eBNError, align 8, !tbaa !6
  call void (i64, ptr, ...) @ossl_raise(i64 noundef %13, ptr noundef null) #12
  unreachable

14:                                               ; preds = %8
  %15 = call i32 @BN_sub(ptr noundef nonnull %11, ptr noundef nonnull %5, ptr noundef nonnull %4) #11
  %16 = icmp slt i32 %15, 1
  br i1 %16, label %17, label %19

17:                                               ; preds = %14
  call void @BN_free(ptr noundef nonnull %11) #11
  %18 = load i64, ptr @eBNError, align 8, !tbaa !6
  call void (i64, ptr, ...) @ossl_raise(i64 noundef %18, ptr noundef null) #12
  unreachable

19:                                               ; preds = %14
  %20 = inttoptr i64 %10 to ptr
  %21 = getelementptr inbounds nuw i8, ptr %20, i64 32
  store ptr %11, ptr %21, align 8, !tbaa !10
  ret i64 %10
}